target datalayout = "e-m:e-p270:32:32-p271:32:32-p272:64:64-i64:64-i128:128-f80:128-n8:16:32:64-S128"
target triple = "x86_64-pc-linux-gnu"

%struct.Agattr_s = type { %struct.Agrec_s, ptr, ptr }
%struct.Agrec_s = type { ptr, ptr }

@AgDataRecName = global ptr @.str, align 8

; Function Attrs: nounwind uwtable
define ptr @agattrrec(ptr noundef %0) #0 {
  %2 = alloca ptr, align 8
  store ptr %0, ptr %2, align 8, !tbaa !3
  %3 = load ptr, ptr %2, align 8, !tbaa !3
  %4 = load ptr, ptr @AgDataRecName, align 8, !tbaa !31
  %5 = call ptr @aggetrec(ptr noundef %3, ptr noundef %4, i32 noundef 0)
  ret ptr %5
}

; Function Attrs: nounwind uwtable
define void @agnodeattr_init(ptr noundef %0, ptr noundef %1) #0 {
  %3 = alloca ptr, align 8
  %4 = alloca ptr, align 8
  %5 = alloca ptr, align 8
  store ptr %0, ptr %3, align 8, !tbaa !9
  store ptr %1, ptr %4, align 8, !tbaa !24
  call void @llvm.lifetime.start.p0(i64 8, ptr %5) #11
  %6 = load ptr, ptr %4, align 8, !tbaa !24
  %7 = call ptr @agattrrec(ptr noundef %6)
  store ptr %7, ptr %5, align 8, !tbaa !32
  %8 = load ptr, ptr %5, align 8, !tbaa !32
  %9 = icmp ne ptr %8, null
  br i1 %9, label %10, label %15

10:                                               ; preds = %2
  %11 = load ptr, ptr %5, align 8, !tbaa !32
  %12 = getelementptr inbounds nuw %struct.Agattr_s, ptr %11, i32 0, i32 1
  %13 = load ptr, ptr %12, align 8, !tbaa !34
  %14 = icmp ne ptr %13, null
  br i1 %14, label %19, label %15

15:                                               ; preds = %10, %2
  %16 = load ptr, ptr %3, align 8, !tbaa !9
  %17 = load ptr, ptr %4, align 8, !tbaa !24
  %18 = call ptr @agmakeattrs(ptr noundef %16, ptr noundef %17)
  br label %19

19:                                               ; preds = %15, %10
  call void @llvm.lifetime.end.p0(i64 8, ptr %5) #11
  ret void
}